******************************************************************************
                  TI ARM Linker PC v5.1.7                      
******************************************************************************
>> Linked Wed Aug 13 10:10:12 2014

OUTPUT FILE NAME:   <wylightFirmware.out>
ENTRY POINT SYMBOL: "_c_int00"  address: 2000cc39


MEMORY CONFIGURATION

         name            origin    length      used     unused   attr    fill
----------------------  --------  ---------  --------  --------  ----  --------
  SRAM_CODE             20004000   00012fff  00009628  000099d7  RW X
  SRAM_DATA             20017000   00019000  00001255  00017dab  RW X


SEGMENT ALLOCATION MAP

run origin  load origin   length   init length attrs members
----------  ----------- ---------- ----------- ----- -------
20004000    20004000    00009628   00009628    r-x
  20004000    20004000    00000400   00000400    r-- .intvecs
  20004400    20004400    00008abc   00008abc    r-x .text
  2000cebc    2000cebc    0000071c   0000071c    r-- .const
  2000d5d8    2000d5d8    00000050   00000050    r-- .cinit
20017000    20017000    00000a58   00000000    rw-
  20017000    20017000    00000800   00000000    rw- .sysmem
  20017800    20017800    00000215   00000000    rw- .bss
  20017a18    20017a18    00000040   00000000    rw- .data
2002f800    2002f800    00000800   00000000    rw-
  2002f800    2002f800    00000800   00000000    rw- .stack


SECTION ALLOCATION MAP

 output                                  attributes/
section   page    origin      length       input sections
--------  ----  ----------  ----------   ----------------
.init_array 
*          0    20004000    00000000     UNINITIALIZED

.intvecs   0    20004000    00000400     
                  20004000    00000400     startup_ccs.obj (.intvecs)

.text      0    20004400    00008abc     
                  20004400    0000126c     simplelink.a : driver.obj (.text)
                  2000566c    00000ec0     rtsv7M4_T_le_v4SPD16_eabi.lib : _printfi.obj (.text)
                  2000652c    00000b48     main.obj (.text)
                  20007074    0000098c     driverlib.a : prcm.obj (.text)
                  20007a00    00000960     simplelink.a : socket.obj (.text)
                  20008360    000007a4                  : wlan.obj (.text)
                  20008b04    0000079c     driverlib.a : spi.obj (.text)
                  200092a0    00000748     simplelink.a : netapp.obj (.text)
                  200099e8    00000514                  : cc_pal.obj (.text)
                  20009efc    000004a4     driverlib.a : udma.obj (.text)
                  2000a3a0    0000048c                 : uart.obj (.text)
                  2000a82c    000003dc     rtsv7M4_T_le_v4SPD16_eabi.lib : memory.obj (.text)
                  2000ac08    000003b4     simplelink.a : device.obj (.text)
                  2000afbc    0000039c     driverlib.a : timer.obj (.text)
                  2000b358    00000370                 : interrupt.obj (.text)
                  2000b6c8    00000300                 : flash.obj (.text)
                  2000b9c8    00000284                 : pin.obj (.text)
                  2000bc4c    000001f4     rtsv7M4_T_le_v4SPD16_eabi.lib : ull_div_t2.obj (.text)
                  2000be40    000001d4     uart_if.obj (.text)
                  2000c014    000001b6     rtsv7M4_T_le_v4SPD16_eabi.lib : fd_add_t2.obj (.text)
                  2000c1ca    00000136                                   : fd_div_t2.obj (.text)
                  2000c300    00000100     BroadcastTransmitter.obj (.text)
                  2000c400    000000fc     rtsv7M4_T_le_v4SPD16_eabi.lib : fd_mul_t2.obj (.text)
                  2000c4fc    000000fa     timer_if.obj (.text)
                  2000c5f6    00000002     --HOLE-- [fill = 0]
                  2000c5f8    000000b4     simplelink.a : netcfg.obj (.text)
                  2000c6ac    0000009c     rtsv7M4_T_le_v4SPD16_eabi.lib : memcpy_t2.obj (.text)
                  2000c748    00000094                                   : auto_init.obj (.text)
                  2000c7dc    00000094     simplelink.a : nonos.obj (.text)
                  2000c870    00000088     rtsv7M4_T_le_v4SPD16_eabi.lib : vsnprintf.obj (.text)
                  2000c8f8    00000086                                   : fd_cmp_t2.obj (.text:__aeabi_cdcmple)
                  2000c97e    00000086                                   : fd_cmp_t2.obj (.text:__aeabi_cdrcmple)
                  2000ca04    00000078                                   : memset_t2.obj (.text)
                  2000ca7c    0000005e     driverlib.a : cpu.obj (.text)
                  2000cada    0000005e     rtsv7M4_T_le_v4SPD16_eabi.lib : copy_decompress_rle.obj (.text)
                  2000cb38    0000005a                                   : ltoa.obj (.text)
                  2000cb92    00000002     --HOLE-- [fill = 0]
                  2000cb94    00000058     simplelink.a : flowcont.obj (.text)
                  2000cbec    0000004c     rtsv7M4_T_le_v4SPD16_eabi.lib : atoi.obj (.text)
                  2000cc38    00000048                                   : boot.obj (.text)
                  2000cc80    00000048                                   : fd_toi_t2.obj (.text)
                  2000ccc8    00000044                                   : cpy_tbl.obj (.text)
                  2000cd0c    00000044                                   : exit.obj (.text)
                  2000cd50    00000044                                   : xdtest.obj (.text)
                  2000cd94    0000002e                                   : i_tofd_t2.obj (.text)
                  2000cdc2    0000001e                                   : ll_lsr_t2.obj (.text)
                  2000cde0    0000001c     pinmux.obj (.text)
                  2000cdfc    0000001c     rtsv7M4_T_le_v4SPD16_eabi.lib : memccpy.obj (.text)
                  2000ce18    00000018                                   : args_main.obj (.text)
                  2000ce30    00000018                                   : ll_mul_t2.obj (.text)
                  2000ce48    00000014                                   : _lock.obj (.text)
                  2000ce5c    00000014                                   : strlen.obj (.text)
                  2000ce70    00000012                                   : copy_zero_init.obj (.text:decompress:ZI)
                  2000ce82    00000012                                   : xdclass.obj (.text)
                  2000ce94    0000000e                                   : copy_decompress_none.obj (.text:decompress:none)
                  2000cea2    0000000e     startup_ccs.obj (.text)
                  2000ceb0    00000006     driverlib.a : utils.obj (.text:UtilsDelay)
                  2000ceb6    00000006     rtsv7M4_T_le_v4SPD16_eabi.lib : copy_decompress_rle.obj (.text:decompress:rle24)

.const     0    2000cebc    0000071c     
                  2000cebc    00000102     rtsv7M4_T_le_v4SPD16_eabi.lib : ctype.obj (.const:.string:_ctypes_)
                  2000cfbe    00000002     --HOLE-- [fill = 0]
                  2000cfc0    00000100     driverlib.a : pin.obj (.const:g_ulPinToPadMap)
                  2000d0c0    000000d4                 : interrupt.obj (.const:g_pulRegs)
                  2000d194    000000b0     simplelink.a : wlan.obj (.const:$P$T0$1)
                  2000d244    000000a0     driverlib.a : prcm.obj (.const:PRCM_PeriphRegsList)
                  2000d2e4    00000080                 : interrupt.obj (.const)
                  2000d364    0000006e     BroadcastTransmitter.obj (.const:.string:capturedBroadcastMessage)
                  2000d3d2    00000002     --HOLE-- [fill = 0]
                  2000d3d4    00000040     driverlib.a : flash.obj (.const:g_pulFMPPERegs)
                  2000d414    00000040                 : flash.obj (.const:g_pulFMPRERegs)
                  2000d454    0000003c     simplelink.a : wlan.obj (.const)
                  2000d490    00000038                  : driver.obj (.const:_SlActionLookupTable)
                  2000d4c8    00000034                  : socket.obj (.const)
                  2000d4fc    0000002c     main.obj (.const:$P$T0$1)
                  2000d528    00000028     simplelink.a : netapp.obj (.const)
                  2000d550    00000024     driverlib.a : spi.obj (.const:g_ppulSPIIntMap)
                  2000d574    00000018                 : spi.obj (.const)
                  2000d58c    00000014     simplelink.a : device.obj (.const)
                  2000d5a0    00000014                  : driver.obj (.const)
                  2000d5b4    00000010     driverlib.a : uart.obj (.const)
                  2000d5c4    0000000c     main.obj (.const)
                  2000d5d0    00000008     simplelink.a : netcfg.obj (.const)

.cinit     0    2000d5d8    00000050     
                  2000d5d8    00000025     (.cinit..data.load) [load image, compression = rle]
                  2000d5fd    00000003     --HOLE-- [fill = 0]
                  2000d600    0000000c     (__TI_handler_table)
                  2000d60c    00000004     --HOLE-- [fill = 0]
                  2000d610    00000008     (.cinit..bss.load) [load image, compression = zero_init]
                  2000d618    00000010     (__TI_cinit_table)

.sysmem    0    20017000    00000800     UNINITIALIZED
                  20017000    00000008     rtsv7M4_T_le_v4SPD16_eabi.lib : memory.obj (.sysmem)
                  20017008    000007f8     --HOLE--

.bss       0    20017800    00000215     UNINITIALIZED
                  20017800    00000164     simplelink.a : driver.obj (.bss:g_StatMem)
                  20017964    00000050                  : cc_pal.obj (.bss:g_ucDinDout)
                  200179b4    00000028                  : nonos.obj (.bss:g__SlNonOsCB)
                  200179dc    00000024     main.obj (.bss:g_ucConnectionSSID)
                  20017a00    00000008     (.common:g_ucConnectionBSSID)
                  20017a08    00000004     (.common:__Errorlog)
                  20017a0c    00000004     (.common:g_ulBase)
                  20017a10    00000004     (.common:g_ulTimerInterrupt)
                  20017a14    00000001     (.common:g_cDummy)

.data      0    20017a18    00000040     UNINITIALIZED
                  20017a18    00000010     simplelink.a : cc_pal.obj (.data)
                  20017a28    0000000c     rtsv7M4_T_le_v4SPD16_eabi.lib : memory.obj (.data)
                  20017a34    00000008     main.obj (.data)
                  20017a3c    00000008     rtsv7M4_T_le_v4SPD16_eabi.lib : _lock.obj (.data)
                  20017a44    00000008                                   : exit.obj (.data)
                  20017a4c    00000008     simplelink.a : driver.obj (.data)
                  20017a54    00000004     rtsv7M4_T_le_v4SPD16_eabi.lib : stkdepth_vars.obj (.data)

.stack     0    2002f800    00000800     UNINITIALIZED
                  2002f800    00000800     --HOLE--


LINKER GENERATED COPY TABLES

__TI_cinit_table @ 2000d618 records: 2, size/record: 8, table size: 16
	.data: load addr=2000d5d8, load size=00000025 bytes, run addr=20017a18, run size=00000040 bytes, compression=rle
	.bss: load addr=2000d610, load size=00000008 bytes, run addr=20017800, run size=00000215 bytes, compression=zero_init


LINKER GENERATED HANDLER TABLE

__TI_handler_table @ 2000d600 records: 3, size/record: 4, table size: 12
	index: 0, handler: __TI_decompress_rle24
	index: 1, handler: __TI_decompress_none
	index: 2, handler: __TI_zero_init


GLOBAL SYMBOLS: SORTED ALPHABETICALLY BY Name 

address    name
--------   ----
2000c38d   BroadcastTransmitter_init
2000cd0d   C$$EXIT
2000cad1   CPUbasepriGet
2000cabb   CPUbasepriSet
2000ca7d   CPUcpsid
2000ca9b   CPUcpsie
2000ca91   CPUprimask
2000caaf   CPUwfi
2000be81   ClearTerm
20009365   CopyPingResultsToReport
20006c79   CreateConnection
20009e8d   DmaSpiSwIntHandler
2000be8b   Error
2000b6c9   FlashDisable
2000b6ff   FlashErase
2000b739   FlashEraseNonBlocking
2000b975   FlashIntClear
2000b945   FlashIntDisable
2000b931   FlashIntEnable
2000b90d   FlashIntRegister
2000b959   FlashIntStatus
2000b921   FlashIntUnregister
2000b757   FlashMassErase
2000b783   FlashMassEraseNonBlocking
2000b793   FlashProgram
2000b815   FlashProgramNonBlocking
2000b897   FlashProtectGet
2000bec3   GetCmd
2000accb   GetStartResponseConvert
20009ea9   HostIntHanlder
2000be41   InitTerm
2000b515   IntDisable
2000b47b   IntEnable
2000b365   IntMasterDisable
2000b35b   IntMasterEnable
2000b63d   IntPendClear
2000b5af   IntPendSet
2000b457   IntPriorityGet
2000b3cf   IntPriorityGroupingGet
2000b3b5   IntPriorityGroupingSet
2000b6a1   IntPriorityMaskGet
2000b695   IntPriorityMaskSet
2000b407   IntPrioritySet
2000b37f   IntRegister
2000b39b   IntUnregister
2000b36f   IntVTableBaseSet
2000be5f   Message
20009de1   NwpMaskInterrupt
20009df1   NwpPowerOff
20009e69   NwpPowerOn
20009e25   NwpPowerOnPreamble
20009da1   NwpRegisterInterruptHandler
20009d93   NwpUnMaskInterrupt
200078e9   PRCMCC3200MCUInit
20007321   PRCMDeepSleepEnter
200074eb   PRCMHibernateEnter
20007425   PRCMHibernateIntervalSet
20007499   PRCMHibernateWakeUpGPIOSelect
20007409   PRCMHibernateWakeupCauseGet
200073e3   PRCMHibernateWakeupSourceDisable
200073bd   PRCMHibernateWakeupSourceEnable
20007207   PRCMI2SClockFreqSet
2000762d   PRCMIntDisable
200075f9   PRCMIntEnable
200075d1   PRCMIntRegister
20007651   PRCMIntStatus
200075e5   PRCMIntUnregister
2000726f   PRCMLPDSEnter
200072db   PRCMLPDSIntervalSet
20007257   PRCMLPDSRestoreInfoSet
200072fd   PRCMLPDSWakeUpGPIOSelect
200072d5   PRCMLPDSWakeupCauseGet
200072c1   PRCMLPDSWakeupSourceDisable
2000729f   PRCMLPDSWakeupSourceEnable
20007081   PRCMMCUReset
200075b7   PRCMOCRRegisterRead
2000759d   PRCMOCRRegisterWrite
200070f1   PRCMPeripheralClkDisable
200070c5   PRCMPeripheralClkEnable
20007111   PRCMPeripheralClockGet
2000718f   PRCMPeripheralReset
200071dd   PRCMPeripheralStatusGet
20007719   PRCMRTCGet
20007669   PRCMRTCInUseGet
20007657   PRCMRTCInUseSet
2000784d   PRCMRTCMatchGet
200077b1   PRCMRTCMatchSet
20007689   PRCMRTCSet
20007075   PRCMSOCReset
20007389   PRCMSRAMRetentionDisable
20007351   PRCMSRAMRetentionEnable
20007319   PRCMSleepEnter
200074fb   PRCMSlowClkCtrGet
2000755d   PRCMSlowClkCtrMatchGet
20007535   PRCMSlowClkCtrMatchSet
200070a1   PRCMSysResetCauseGet
2000ba89   PinConfigGet
2000bac7   PinConfigSet
2000ba5f   PinDirModeGet
2000ba2b   PinDirModeSet
2000ba01   PinModeGet
2000b9c9   PinModeSet
2000cde1   PinMuxConfig
2000bc11   PinTypeADC
2000bbc7   PinTypeCamera
2000bbe1   PinTypeGPIO
2000bb5d   PinTypeI2C
2000bb93   PinTypeI2S
2000bc25   PinTypeSDHost
2000bb79   PinTypeSPI
2000bbad   PinTypeTimer
2000bb43   PinTypeUART
2000bf55   Report
2000cea3   ResetISR
UNDEFED    SHT$$INIT_ARRAY$$Base
UNDEFED    SHT$$INIT_ARRAY$$Limit
20008345   SL_FD_CLR
20008335   SL_FD_ISSET
20008321   SL_FD_SET
2000831b   SL_FD_ZERO
200091e9   SPICSDisable
200091d1   SPICSEnable
20008e61   SPIConfigSetExpClk
20008f2f   SPIDataGet
20008f05   SPIDataGetNonBlocking
20008f77   SPIDataPut
20008f4f   SPIDataPutNonBlocking
20008df3   SPIDisable
20008e25   SPIDmaDisable
20008e0b   SPIDmaEnable
20008ddb   SPIEnable
20008faf   SPIFIFODisable
20008f95   SPIFIFOEnable
20008ffd   SPIFIFOLevelGet
20008fc9   SPIFIFOLevelSet
20009193   SPIIntClear
200090db   SPIIntDisable
20009097   SPIIntEnable
20009059   SPIIntRegister
20009125   SPIIntStatus
2000907d   SPIIntUnregister
20008e3f   SPIReset
20009201   SPITransfer
20009031   SPIWordCountSet
2000c301   SendBroadcastMessage
20009b41   SetupDMAReceive
20009a5b   SetupDMASend
200066f9   SimpleLinkGeneralEventHandler
200066dd   SimpleLinkHttpServerCallback
20006637   SimpleLinkNetAppEventHandler
20006715   SimpleLinkSockEventHandler
2000652d   SimpleLinkWlanEventHandler
2000c379   TimerBaseIntHandler
2000aff9   TimerConfigure
2000b069   TimerControlEvent
2000b033   TimerControlLevel
2000b095   TimerControlStall
2000b33d   TimerDMAEventGet
2000b32b   TimerDMAEventSet
2000afdb   TimerDisable
2000afbd   TimerEnable
2000b319   TimerIntClear
2000b2dd   TimerIntDisable
2000b2c5   TimerIntEnable
2000b1ff   TimerIntRegister
2000b2f5   TimerIntStatus
2000b269   TimerIntUnregister
2000b181   TimerLoadGet
2000b157   TimerLoadSet
2000b1e3   TimerMatchGet
2000b1b9   TimerMatchSet
2000b0f5   TimerPrescaleGet
2000b13b   TimerPrescaleMatchGet
2000b111   TimerPrescaleMatchSet
2000b0cb   TimerPrescaleSet
2000b19d   TimerValueGet
2000c5b1   Timer_IF_DeInit
2000c5df   Timer_IF_GetCount
2000c4fd   Timer_IF_Init
2000c52f   Timer_IF_IntSetup
2000c56d   Timer_IF_InterruptClear
2000c5cb   Timer_IF_ReLoad
2000c585   Timer_IF_Start
2000c5a1   Timer_IF_Stop
2000a6fd   UARTBreakCtl
2000a727   UARTBusy
2000a6a5   UARTCharGet
2000a689   UARTCharGetNonBlocking
2000a6df   UARTCharPut
2000a6bb   UARTCharPutNonBlocking
2000a64f   UARTCharsAvail
2000a4c1   UARTConfigGetExpClk
2000a44b   UARTConfigSetExpClk
2000a7ef   UARTDMADisable
2000a7d7   UARTDMAEnable
2000a531   UARTDisable
2000a50d   UARTEnable
2000a571   UARTFIFODisable
2000a55b   UARTFIFOEnable
2000a423   UARTFIFOLevelGet
2000a40b   UARTFIFOLevelSet
2000a60f   UARTFlowControlGet
2000a5f3   UARTFlowControlSet
2000a7c5   UARTIntClear
2000a78f   UARTIntDisable
2000a777   UARTIntEnable
2000a73f   UARTIntRegister
2000a7a7   UARTIntStatus
2000a75d   UARTIntUnregister
2000a5ab   UARTModemControlClear
2000a5cf   UARTModemControlGet
2000a587   UARTModemControlSet
2000a5e1   UARTModemStatusGet
2000a3f9   UARTParityModeGet
2000a3dd   UARTParityModeSet
2000a81d   UARTRxErrorClear
2000a807   UARTRxErrorGet
2000a667   UARTSpaceAvail
2000a63d   UARTTxIntModeGet
2000a621   UARTTxIntModeSet
2000ceb1   UtilsDelay
2000ce83   _Dclass
2000cd51   _Dtest
2000d4dc   _SlAcceptCmdCtrl
2000d490   _SlActionLookupTable
20004ddf   _SlAsyncEventGenericHandler
2000d598   _SlDeviceGetCmdCtrl
2000d59c   _SlDeviceSetCmdCtrl
20005631   _SlDrvBasicCmd
200049a5   _SlDrvClassifyRxMsg
200055e1   _SlDrvCmdOp
200055c3   _SlDrvCmdSend
20005461   _SlDrvDataReadOp
2000531f   _SlDrvDataWriteOp
2000af85   _SlDrvDeviceEventHandler
200052c7   _SlDrvDriverCBDeinit
20005249   _SlDrvDriverCBInit
2000cbbf   _SlDrvFlowContDeinit
2000cb95   _SlDrvFlowContInit
20004a39   _SlDrvMsgRead
20005199   _SlDrvMsgReadCmdCtx
20005105   _SlDrvMsgReadSpawnCtx
200048a9   _SlDrvMsgWrite
20009925   _SlDrvNetAppEventHandler
2000487f   _SlDrvObjDeInit
20004849   _SlDrvObjInit
2000474d   _SlDrvReleasePoolObj
20004625   _SlDrvRxHdrRead
200045ef   _SlDrvRxIrqHandler
200045db   _SlDrvShiftDWord
200044cb   _SlDrvWaitForPoolObj
2000d594   _SlEventMaskGetCmdCtrl
2000d590   _SlEventMaskSetCmdCtrl
2000443f   _SlFindAndSetActiveObj
2000d53c   _SlGetHostByNameCtrl
2000d538   _SlGetHostByServiceCtrl
2000d530   _SlGetServiceListeCtrl
2000d4e8   _SlGetSockOptCmdCtrl
2000d4d8   _SlListenCmdCtrl
2000d548   _SlNetAppGetCmdCtrl
2000d544   _SlNetAppSendTokenValueCmdCtrl
2000d540   _SlNetAppSetCmdCtrl
2000d528   _SlNetAppStartCtrl
2000d52c   _SlNetAppStopCtrl
2000d5d4   _SlNetCfgGetCmdCtrl
2000d5d0   _SlNetCfgSetCmdCtrl
2000c801   _SlNonOsMainLoopTask
2000c839   _SlNonOsSemGet
2000c7f9   _SlNonOsSemSet
2000c7dd   _SlNonOsSpawn
2000d458   _SlPolicyGetCmdCtrl
2000d454   _SlPolicySetCmdCtrl
2000d460   _SlProfileDelCmdCtrl
2000d45c   _SlProfileGetCmdCtrl
2000d4e0   _SlRecvCmdCtrl
2000d4d0   _SlRecvfomCmdCtrl
2000d534   _SlRegisterServiceCtrl
20004401   _SlRemoveFromList
2000d468   _SlRxFilterAddtCmdCtrl
2000d470   _SlRxFilterGetCmdCtrl
2000d46c   _SlRxFilterSetCmdCtrl
2000d4ec   _SlSelectCmdCtrl
2000d4d4   _SlSendCmdCtrl
2000d4e4   _SlSetSockOptCmdCtrl
2000d474   _SlSmartConfigStartCmdCtrl
2000d4cc   _SlSockCloseCmdCtrl
2000d4c8   _SlSockSocketCmdCtrl
2000d58c   _SlStopCmdCtrl
2000d480   _SlWlanCfgGetCmdCtrl
2000d47c   _SlWlanCfgSetCmdCtrl
2000d464   _SlWlanGetNetworkListCtrl
2000d478   _SlWlanSetModeCmdCtrl
20030000   __STACK_END
00000800   __STACK_SIZE
00000800   __SYSMEM_SIZE
2000d618   __TI_CINIT_Base
2000d628   __TI_CINIT_Limit
2000d600   __TI_Handler_Table_Base
2000d60c   __TI_Handler_Table_Limit
00000001   __TI_args_main
2000c749   __TI_auto_init
20017a44   __TI_cleanup_ptr
2000ce95   __TI_decompress_none
2000ceb7   __TI_decompress_rle24
20017a48   __TI_dtors_ptr
20006223   __TI_printfi
2000d5d8   __TI_static_base__
2000ce71   __TI_zero_init
2000c8f9   __aeabi_cdcmpeq
2000c8f9   __aeabi_cdcmple
2000c97f   __aeabi_cdrcmple
2000cc81   __aeabi_d2iz
2000c01f   __aeabi_dadd
2000c1cb   __aeabi_ddiv
2000c401   __aeabi_dmul
2000c015   __aeabi_dsub
2000cd95   __aeabi_i2d
2000cdc3   __aeabi_llsr
2000ce31   __aeabi_lmul
2000ca05   __aeabi_memclr
2000ca05   __aeabi_memclr4
2000ca05   __aeabi_memclr8
2000c6ad   __aeabi_memcpy
2000c6ad   __aeabi_memcpy4
2000c6ad   __aeabi_memcpy8
2000ca07   __aeabi_memset
2000ca07   __aeabi_memset4
2000ca07   __aeabi_memset8
2000bc4d   __aeabi_uldivmod
ffffffff   __binit__
ffffffff   __c_args__
2002f800   __stack
2000ce19   _args_main
2000cc39   _c_int00
2000cebc   _ctypes_
20017a3c   _lock
2000ce57   _nop
2000ce4f   _register_lock
2000ce49   _register_unlock
20007ad9   _sl_BuildAddress
200082b7   _sl_HandleAsync_Accept
20008249   _sl_HandleAsync_Connect
2000991f   _sl_HandleAsync_DnsGetHostByAddr
200098a1   _sl_HandleAsync_DnsGetHostByName
20009831   _sl_HandleAsync_DnsGetHostByService
2000af11   _sl_HandleAsync_InitComplete
200097bd   _sl_HandleAsync_PingResponse
200081f1   _sl_HandleAsync_Select
2000aeb1   _sl_HandleAsync_Stop
200081b3   _sl_ParseAddress
20007a6b   _sl_TruncatePayloadByProtocol
20017000   _sys_memory
20017a40   _unlock
2000cd11   abort
2000cbed   atoi
ffffffff   binit
2000abd1   calloc
2000d364   capturedBroadcastMessage
20009a25   cc_SetupTransfer
20009c35   cc_UDMAChannelSelect
2000ccc9   copy_in
2000cd19   exit
2000a921   free
2000d5a8   g_H2NCnysPattern
2000d5a0   g_H2NSyncPattern
20017a1c   g_SpiFd
20017800   g_StatMem
200179b4   g__SlNonOsCB
20017a14   g_cDummy
20017a24   g_len
20017a4c   g_pCB
20017a18   g_pHostIntHdl
20004000   g_pfnVectors
20017a00   g_ucConnectionBSSID
200179dc   g_ucConnectionSSID
20017a20   g_ucDMAEnabled
20017964   g_ucDinDout
20017a38   g_ulGatewayIP
20017a34   g_ulStatus
20017a10   g_ulTimerInterrupt
2000cb39   ltoa
20006da1   main
20017a54   main_func_sp
2000a8b9   malloc
2000aaed   memalign
2000cdfd   memccpy
2000c6ad   memcpy
2000ca0d   memset
2000a82d   minit
20017a50   pPingCallBackFunc
2000a9e1   realloc
200080a5   sl_Accept
2000803d   sl_Bind
2000801f   sl_Close
20007f35   sl_Connect
2000ae45   sl_DevGet
2000ae05   sl_DevSet
2000ade7   sl_EventMaskGet
2000adc9   sl_EventMaskSet
20007ecd   sl_GetSockOpt
20007e8b   sl_Htonl
20007e57   sl_Htons
20007e35   sl_Listen
200096eb   sl_NetAppDnsGetHostByName
2000961d   sl_NetAppDnsGetHostByService
200095bd   sl_NetAppGet
20009549   sl_NetAppGetServiceList
20009529   sl_NetAppMDNSRegisterService
20009493   sl_NetAppMDNSRegisterUnregisterService
20009517   sl_NetAppMDNSUnRegisterService
2000937f   sl_NetAppPingStart
20009319   sl_NetAppSendTokenValue
200092d9   sl_NetAppSet
200092bd   sl_NetAppStart
200092a1   sl_NetAppStop
2000c639   sl_NetCfgGet
2000c5f9   sl_NetCfgSet
20007dfb   sl_Recv
20007d53   sl_RecvFrom
20007c55   sl_Select
20007bab   sl_Send
20007b01   sl_SendTo
20007a2b   sl_SetSockOpt
20007a01   sl_Socket
2000ad15   sl_Start
2000ac0d   sl_Stop
2000ac09   sl_Task
20008959   sl_WlanConnect
2000894d   sl_WlanDisconnect
200088e5   sl_WlanGet
2000889d   sl_WlanGetNetworkList
20008831   sl_WlanPolicyGet
200087ef   sl_WlanPolicySet
20008649   sl_WlanProfileAdd
20008611   sl_WlanProfileDel
20008557   sl_WlanProfileGet
200084fd   sl_WlanRxFilterAdd
200084ad   sl_WlanRxFilterGet
20008477   sl_WlanRxFilterSet
20008441   sl_WlanRxStatGet
20008439   sl_WlanRxStatStart
20008431   sl_WlanRxStatStop
200083f1   sl_WlanSet
200083d3   sl_WlanSetMode
20008369   sl_WlanSmartConfigStart
20008361   sl_WlanSmartConfigStop
20009d31   spi_Close
20009c51   spi_Open
20009ba9   spi_Read
20009b05   spi_Read_CPU
20009abd   spi_Write
200099e9   spi_Write_CPU
2000ce5d   strlen
2000a345   uDMAChannelAssign
20009ff5   uDMAChannelAttributeDisable
20009fa1   uDMAChannelAttributeEnable
2000a049   uDMAChannelAttributeGet
2000a0b9   uDMAChannelControlSet
20009f33   uDMAChannelDisable
20009f1b   uDMAChannelEnable
20009f4b   uDMAChannelIsEnabled
2000a2bd   uDMAChannelModeGet
20009f89   uDMAChannelRequest
2000a1ed   uDMAChannelScatterGatherSet
2000a275   uDMAChannelSizeGet
2000a0f5   uDMAChannelTransferSet
20009f83   uDMAControlAlternateBaseGet
20009f7d   uDMAControlBaseGet
20009f6d   uDMAControlBaseSet
20009f05   uDMADisable
20009efd   uDMAEnable
20009f13   uDMAErrorStatusClear
20009f0d   uDMAErrorStatusGet
2000a331   uDMAIntClear
2000a303   uDMAIntRegister
2000a32b   uDMAIntStatus
2000a319   uDMAIntUnregister
2000c871   vsnprintf


GLOBAL SYMBOLS: SORTED BY Symbol Address 

address    name
--------   ----
00000001   __TI_args_main
00000800   __STACK_SIZE
00000800   __SYSMEM_SIZE
20004000   g_pfnVectors
20004401   _SlRemoveFromList
2000443f   _SlFindAndSetActiveObj
200044cb   _SlDrvWaitForPoolObj
200045db   _SlDrvShiftDWord
200045ef   _SlDrvRxIrqHandler
20004625   _SlDrvRxHdrRead
2000474d   _SlDrvReleasePoolObj
20004849   _SlDrvObjInit
2000487f   _SlDrvObjDeInit
200048a9   _SlDrvMsgWrite
200049a5   _SlDrvClassifyRxMsg
20004a39   _SlDrvMsgRead
20004ddf   _SlAsyncEventGenericHandler
20005105   _SlDrvMsgReadSpawnCtx
20005199   _SlDrvMsgReadCmdCtx
20005249   _SlDrvDriverCBInit
200052c7   _SlDrvDriverCBDeinit
2000531f   _SlDrvDataWriteOp
20005461   _SlDrvDataReadOp
200055c3   _SlDrvCmdSend
200055e1   _SlDrvCmdOp
20005631   _SlDrvBasicCmd
20006223   __TI_printfi
2000652d   SimpleLinkWlanEventHandler
20006637   SimpleLinkNetAppEventHandler
200066dd   SimpleLinkHttpServerCallback
200066f9   SimpleLinkGeneralEventHandler
20006715   SimpleLinkSockEventHandler
20006c79   CreateConnection
20006da1   main
20007075   PRCMSOCReset
20007081   PRCMMCUReset
200070a1   PRCMSysResetCauseGet
200070c5   PRCMPeripheralClkEnable
200070f1   PRCMPeripheralClkDisable
20007111   PRCMPeripheralClockGet
2000718f   PRCMPeripheralReset
200071dd   PRCMPeripheralStatusGet
20007207   PRCMI2SClockFreqSet
20007257   PRCMLPDSRestoreInfoSet
2000726f   PRCMLPDSEnter
2000729f   PRCMLPDSWakeupSourceEnable
200072c1   PRCMLPDSWakeupSourceDisable
200072d5   PRCMLPDSWakeupCauseGet
200072db   PRCMLPDSIntervalSet
200072fd   PRCMLPDSWakeUpGPIOSelect
20007319   PRCMSleepEnter
20007321   PRCMDeepSleepEnter
20007351   PRCMSRAMRetentionEnable
20007389   PRCMSRAMRetentionDisable
200073bd   PRCMHibernateWakeupSourceEnable
200073e3   PRCMHibernateWakeupSourceDisable
20007409   PRCMHibernateWakeupCauseGet
20007425   PRCMHibernateIntervalSet
20007499   PRCMHibernateWakeUpGPIOSelect
200074eb   PRCMHibernateEnter
200074fb   PRCMSlowClkCtrGet
20007535   PRCMSlowClkCtrMatchSet
2000755d   PRCMSlowClkCtrMatchGet
2000759d   PRCMOCRRegisterWrite
200075b7   PRCMOCRRegisterRead
200075d1   PRCMIntRegister
200075e5   PRCMIntUnregister
200075f9   PRCMIntEnable
2000762d   PRCMIntDisable
20007651   PRCMIntStatus
20007657   PRCMRTCInUseSet
20007669   PRCMRTCInUseGet
20007689   PRCMRTCSet
20007719   PRCMRTCGet
200077b1   PRCMRTCMatchSet
2000784d   PRCMRTCMatchGet
200078e9   PRCMCC3200MCUInit
20007a01   sl_Socket
20007a2b   sl_SetSockOpt
20007a6b   _sl_TruncatePayloadByProtocol
20007ad9   _sl_BuildAddress
20007b01   sl_SendTo
20007bab   sl_Send
20007c55   sl_Select
20007d53   sl_RecvFrom
20007dfb   sl_Recv
20007e35   sl_Listen
20007e57   sl_Htons
20007e8b   sl_Htonl
20007ecd   sl_GetSockOpt
20007f35   sl_Connect
2000801f   sl_Close
2000803d   sl_Bind
200080a5   sl_Accept
200081b3   _sl_ParseAddress
200081f1   _sl_HandleAsync_Select
20008249   _sl_HandleAsync_Connect
200082b7   _sl_HandleAsync_Accept
2000831b   SL_FD_ZERO
20008321   SL_FD_SET
20008335   SL_FD_ISSET
20008345   SL_FD_CLR
20008361   sl_WlanSmartConfigStop
20008369   sl_WlanSmartConfigStart
200083d3   sl_WlanSetMode
200083f1   sl_WlanSet
20008431   sl_WlanRxStatStop
20008439   sl_WlanRxStatStart
20008441   sl_WlanRxStatGet
20008477   sl_WlanRxFilterSet
200084ad   sl_WlanRxFilterGet
200084fd   sl_WlanRxFilterAdd
20008557   sl_WlanProfileGet
20008611   sl_WlanProfileDel
20008649   sl_WlanProfileAdd
200087ef   sl_WlanPolicySet
20008831   sl_WlanPolicyGet
2000889d   sl_WlanGetNetworkList
200088e5   sl_WlanGet
2000894d   sl_WlanDisconnect
20008959   sl_WlanConnect
20008ddb   SPIEnable
20008df3   SPIDisable
20008e0b   SPIDmaEnable
20008e25   SPIDmaDisable
20008e3f   SPIReset
20008e61   SPIConfigSetExpClk
20008f05   SPIDataGetNonBlocking
20008f2f   SPIDataGet
20008f4f   SPIDataPutNonBlocking
20008f77   SPIDataPut
20008f95   SPIFIFOEnable
20008faf   SPIFIFODisable
20008fc9   SPIFIFOLevelSet
20008ffd   SPIFIFOLevelGet
20009031   SPIWordCountSet
20009059   SPIIntRegister
2000907d   SPIIntUnregister
20009097   SPIIntEnable
200090db   SPIIntDisable
20009125   SPIIntStatus
20009193   SPIIntClear
200091d1   SPICSEnable
200091e9   SPICSDisable
20009201   SPITransfer
200092a1   sl_NetAppStop
200092bd   sl_NetAppStart
200092d9   sl_NetAppSet
20009319   sl_NetAppSendTokenValue
20009365   CopyPingResultsToReport
2000937f   sl_NetAppPingStart
20009493   sl_NetAppMDNSRegisterUnregisterService
20009517   sl_NetAppMDNSUnRegisterService
20009529   sl_NetAppMDNSRegisterService
20009549   sl_NetAppGetServiceList
200095bd   sl_NetAppGet
2000961d   sl_NetAppDnsGetHostByService
200096eb   sl_NetAppDnsGetHostByName
200097bd   _sl_HandleAsync_PingResponse
20009831   _sl_HandleAsync_DnsGetHostByService
200098a1   _sl_HandleAsync_DnsGetHostByName
2000991f   _sl_HandleAsync_DnsGetHostByAddr
20009925   _SlDrvNetAppEventHandler
200099e9   spi_Write_CPU
20009a25   cc_SetupTransfer
20009a5b   SetupDMASend
20009abd   spi_Write
20009b05   spi_Read_CPU
20009b41   SetupDMAReceive
20009ba9   spi_Read
20009c35   cc_UDMAChannelSelect
20009c51   spi_Open
20009d31   spi_Close
20009d93   NwpUnMaskInterrupt
20009da1   NwpRegisterInterruptHandler
20009de1   NwpMaskInterrupt
20009df1   NwpPowerOff
20009e25   NwpPowerOnPreamble
20009e69   NwpPowerOn
20009e8d   DmaSpiSwIntHandler
20009ea9   HostIntHanlder
20009efd   uDMAEnable
20009f05   uDMADisable
20009f0d   uDMAErrorStatusGet
20009f13   uDMAErrorStatusClear
20009f1b   uDMAChannelEnable
20009f33   uDMAChannelDisable
20009f4b   uDMAChannelIsEnabled
20009f6d   uDMAControlBaseSet
20009f7d   uDMAControlBaseGet
20009f83   uDMAControlAlternateBaseGet
20009f89   uDMAChannelRequest
20009fa1   uDMAChannelAttributeEnable
20009ff5   uDMAChannelAttributeDisable
2000a049   uDMAChannelAttributeGet
2000a0b9   uDMAChannelControlSet
2000a0f5   uDMAChannelTransferSet
2000a1ed   uDMAChannelScatterGatherSet
2000a275   uDMAChannelSizeGet
2000a2bd   uDMAChannelModeGet
2000a303   uDMAIntRegister
2000a319   uDMAIntUnregister
2000a32b   uDMAIntStatus
2000a331   uDMAIntClear
2000a345   uDMAChannelAssign
2000a3dd   UARTParityModeSet
2000a3f9   UARTParityModeGet
2000a40b   UARTFIFOLevelSet
2000a423   UARTFIFOLevelGet
2000a44b   UARTConfigSetExpClk
2000a4c1   UARTConfigGetExpClk
2000a50d   UARTEnable
2000a531   UARTDisable
2000a55b   UARTFIFOEnable
2000a571   UARTFIFODisable
2000a587   UARTModemControlSet
2000a5ab   UARTModemControlClear
2000a5cf   UARTModemControlGet
2000a5e1   UARTModemStatusGet
2000a5f3   UARTFlowControlSet
2000a60f   UARTFlowControlGet
2000a621   UARTTxIntModeSet
2000a63d   UARTTxIntModeGet
2000a64f   UARTCharsAvail
2000a667   UARTSpaceAvail
2000a689   UARTCharGetNonBlocking
2000a6a5   UARTCharGet
2000a6bb   UARTCharPutNonBlocking
2000a6df   UARTCharPut
2000a6fd   UARTBreakCtl
2000a727   UARTBusy
2000a73f   UARTIntRegister
2000a75d   UARTIntUnregister
2000a777   UARTIntEnable
2000a78f   UARTIntDisable
2000a7a7   UARTIntStatus
2000a7c5   UARTIntClear
2000a7d7   UARTDMAEnable
2000a7ef   UARTDMADisable
2000a807   UARTRxErrorGet
2000a81d   UARTRxErrorClear
2000a82d   minit
2000a8b9   malloc
2000a921   free
2000a9e1   realloc
2000aaed   memalign
2000abd1   calloc
2000ac09   sl_Task
2000ac0d   sl_Stop
2000accb   GetStartResponseConvert
2000ad15   sl_Start
2000adc9   sl_EventMaskSet
2000ade7   sl_EventMaskGet
2000ae05   sl_DevSet
2000ae45   sl_DevGet
2000aeb1   _sl_HandleAsync_Stop
2000af11   _sl_HandleAsync_InitComplete
2000af85   _SlDrvDeviceEventHandler
2000afbd   TimerEnable
2000afdb   TimerDisable
2000aff9   TimerConfigure
2000b033   TimerControlLevel
2000b069   TimerControlEvent
2000b095   TimerControlStall
2000b0cb   TimerPrescaleSet
2000b0f5   TimerPrescaleGet
2000b111   TimerPrescaleMatchSet
2000b13b   TimerPrescaleMatchGet
2000b157   TimerLoadSet
2000b181   TimerLoadGet
2000b19d   TimerValueGet
2000b1b9   TimerMatchSet
2000b1e3   TimerMatchGet
2000b1ff   TimerIntRegister
2000b269   TimerIntUnregister
2000b2c5   TimerIntEnable
2000b2dd   TimerIntDisable
2000b2f5   TimerIntStatus
2000b319   TimerIntClear
2000b32b   TimerDMAEventSet
2000b33d   TimerDMAEventGet
2000b35b   IntMasterEnable
2000b365   IntMasterDisable
2000b36f   IntVTableBaseSet
2000b37f   IntRegister
2000b39b   IntUnregister
2000b3b5   IntPriorityGroupingSet
2000b3cf   IntPriorityGroupingGet
2000b407   IntPrioritySet
2000b457   IntPriorityGet
2000b47b   IntEnable
2000b515   IntDisable
2000b5af   IntPendSet
2000b63d   IntPendClear
2000b695   IntPriorityMaskSet
2000b6a1   IntPriorityMaskGet
2000b6c9   FlashDisable
2000b6ff   FlashErase
2000b739   FlashEraseNonBlocking
2000b757   FlashMassErase
2000b783   FlashMassEraseNonBlocking
2000b793   FlashProgram
2000b815   FlashProgramNonBlocking
2000b897   FlashProtectGet
2000b90d   FlashIntRegister
2000b921   FlashIntUnregister
2000b931   FlashIntEnable
2000b945   FlashIntDisable
2000b959   FlashIntStatus
2000b975   FlashIntClear
2000b9c9   PinModeSet
2000ba01   PinModeGet
2000ba2b   PinDirModeSet
2000ba5f   PinDirModeGet
2000ba89   PinConfigGet
2000bac7   PinConfigSet
2000bb43   PinTypeUART
2000bb5d   PinTypeI2C
2000bb79   PinTypeSPI
2000bb93   PinTypeI2S
2000bbad   PinTypeTimer
2000bbc7   PinTypeCamera
2000bbe1   PinTypeGPIO
2000bc11   PinTypeADC
2000bc25   PinTypeSDHost
2000bc4d   __aeabi_uldivmod
2000be41   InitTerm
2000be5f   Message
2000be81   ClearTerm
2000be8b   Error
2000bec3   GetCmd
2000bf55   Report
2000c015   __aeabi_dsub
2000c01f   __aeabi_dadd
2000c1cb   __aeabi_ddiv
2000c301   SendBroadcastMessage
2000c379   TimerBaseIntHandler
2000c38d   BroadcastTransmitter_init
2000c401   __aeabi_dmul
2000c4fd   Timer_IF_Init
2000c52f   Timer_IF_IntSetup
2000c56d   Timer_IF_InterruptClear
2000c585   Timer_IF_Start
2000c5a1   Timer_IF_Stop
2000c5b1   Timer_IF_DeInit
2000c5cb   Timer_IF_ReLoad
2000c5df   Timer_IF_GetCount
2000c5f9   sl_NetCfgSet
2000c639   sl_NetCfgGet
2000c6ad   __aeabi_memcpy
2000c6ad   __aeabi_memcpy4
2000c6ad   __aeabi_memcpy8
2000c6ad   memcpy
2000c749   __TI_auto_init
2000c7dd   _SlNonOsSpawn
2000c7f9   _SlNonOsSemSet
2000c801   _SlNonOsMainLoopTask
2000c839   _SlNonOsSemGet
2000c871   vsnprintf
2000c8f9   __aeabi_cdcmpeq
2000c8f9   __aeabi_cdcmple
2000c97f   __aeabi_cdrcmple
2000ca05   __aeabi_memclr
2000ca05   __aeabi_memclr4
2000ca05   __aeabi_memclr8
2000ca07   __aeabi_memset
2000ca07   __aeabi_memset4
2000ca07   __aeabi_memset8
2000ca0d   memset
2000ca7d   CPUcpsid
2000ca91   CPUprimask
2000ca9b   CPUcpsie
2000caaf   CPUwfi
2000cabb   CPUbasepriSet
2000cad1   CPUbasepriGet
2000cb39   ltoa
2000cb95   _SlDrvFlowContInit
2000cbbf   _SlDrvFlowContDeinit
2000cbed   atoi
2000cc39   _c_int00
2000cc81   __aeabi_d2iz
2000ccc9   copy_in
2000cd0d   C$$EXIT
2000cd11   abort
2000cd19   exit
2000cd51   _Dtest
2000cd95   __aeabi_i2d
2000cdc3   __aeabi_llsr
2000cde1   PinMuxConfig
2000cdfd   memccpy
2000ce19   _args_main
2000ce31   __aeabi_lmul
2000ce49   _register_unlock
2000ce4f   _register_lock
2000ce57   _nop
2000ce5d   strlen
2000ce71   __TI_zero_init
2000ce83   _Dclass
2000ce95   __TI_decompress_none
2000cea3   ResetISR
2000ceb1   UtilsDelay
2000ceb7   __TI_decompress_rle24
2000cebc   _ctypes_
2000d364   capturedBroadcastMessage
2000d454   _SlPolicySetCmdCtrl
2000d458   _SlPolicyGetCmdCtrl
2000d45c   _SlProfileGetCmdCtrl
2000d460   _SlProfileDelCmdCtrl
2000d464   _SlWlanGetNetworkListCtrl
2000d468   _SlRxFilterAddtCmdCtrl
2000d46c   _SlRxFilterSetCmdCtrl
2000d470   _SlRxFilterGetCmdCtrl
2000d474   _SlSmartConfigStartCmdCtrl
2000d478   _SlWlanSetModeCmdCtrl
2000d47c   _SlWlanCfgSetCmdCtrl
2000d480   _SlWlanCfgGetCmdCtrl
2000d490   _SlActionLookupTable
2000d4c8   _SlSockSocketCmdCtrl
2000d4cc   _SlSockCloseCmdCtrl
2000d4d0   _SlRecvfomCmdCtrl
2000d4d4   _SlSendCmdCtrl
2000d4d8   _SlListenCmdCtrl
2000d4dc   _SlAcceptCmdCtrl
2000d4e0   _SlRecvCmdCtrl
2000d4e4   _SlSetSockOptCmdCtrl
2000d4e8   _SlGetSockOptCmdCtrl
2000d4ec   _SlSelectCmdCtrl
2000d528   _SlNetAppStartCtrl
2000d52c   _SlNetAppStopCtrl
2000d530   _SlGetServiceListeCtrl
2000d534   _SlRegisterServiceCtrl
2000d538   _SlGetHostByServiceCtrl
2000d53c   _SlGetHostByNameCtrl
2000d540   _SlNetAppSetCmdCtrl
2000d544   _SlNetAppSendTokenValueCmdCtrl
2000d548   _SlNetAppGetCmdCtrl
2000d58c   _SlStopCmdCtrl
2000d590   _SlEventMaskSetCmdCtrl
2000d594   _SlEventMaskGetCmdCtrl
2000d598   _SlDeviceGetCmdCtrl
2000d59c   _SlDeviceSetCmdCtrl
2000d5a0   g_H2NSyncPattern
2000d5a8   g_H2NCnysPattern
2000d5d0   _SlNetCfgSetCmdCtrl
2000d5d4   _SlNetCfgGetCmdCtrl
2000d5d8   __TI_static_base__
2000d600   __TI_Handler_Table_Base
2000d60c   __TI_Handler_Table_Limit
2000d618   __TI_CINIT_Base
2000d628   __TI_CINIT_Limit
20017000   _sys_memory
20017800   g_StatMem
20017964   g_ucDinDout
200179b4   g__SlNonOsCB
200179dc   g_ucConnectionSSID
20017a00   g_ucConnectionBSSID
20017a10   g_ulTimerInterrupt
20017a14   g_cDummy
20017a18   g_pHostIntHdl
20017a1c   g_SpiFd
20017a20   g_ucDMAEnabled
20017a24   g_len
20017a34   g_ulStatus
20017a38   g_ulGatewayIP
20017a3c   _lock
20017a40   _unlock
20017a44   __TI_cleanup_ptr
20017a48   __TI_dtors_ptr
20017a4c   g_pCB
20017a50   pPingCallBackFunc
20017a54   main_func_sp
2002f800   __stack
20030000   __STACK_END
ffffffff   __binit__
ffffffff   __c_args__
ffffffff   binit
UNDEFED    SHT$$INIT_ARRAY$$Base
UNDEFED    SHT$$INIT_ARRAY$$Limit

[478 symbols]
