******************************************************************************
                  TI ARM Linker PC v5.1.9                      
******************************************************************************
>> Linked Sun Nov 30 22:32:59 2014

OUTPUT FILE NAME:   <wylightBootloader.out>
ENTRY POINT SYMBOL: "_c_int00"  address: 2000d1e9


MEMORY CONFIGURATION

         name            origin    length      used     unused   attr    fill
----------------------  --------  ---------  --------  --------  ----  --------
  SRAM_CODE             20004000   0000c000  0000993c  000026c4  RW X
  SRAM_DATA             20010000   00001fff  00001c33  000003cc  RW X


SEGMENT ALLOCATION MAP

run origin  load origin   length   init length attrs members
----------  ----------- ---------- ----------- ----- -------
20004000    20004000    00009940   00009940    r-x
  20004000    20004000    00000400   00000400    r-- .intvecs
  20004400    20004400    00008f46   00008f46    r-x .text
  2000d348    2000d348    0000059e   0000059e    r-- .const
  2000d8e8    2000d8e8    00000058   00000058    r-- .cinit
20010000    20010000    00000734   00000000    rw-
  20010000    20010000    000006e0   00000000    rw- .bss
  200106e0    200106e0    00000054   00000000    rw- .data
20010b00    20010b00    000014ff   00000000    rw-
  20010b00    20010b00    000014ff   00000000    rw- .stack


SECTION ALLOCATION MAP

 output                                  attributes/
section   page    origin      length       input sections
--------  ----  ----------  ----------   ----------------
.init_array 
*          0    20004000    00000000     UNINITIALIZED

.intvecs   0    20004000    00000400     
                  20004000    00000400     startup_ccs.obj (.intvecs)

.text      0    20004400    00008f46     
                  20004400    00001df0     simplelink.a : driver.obj (.text)
                  200061f0    00000d2c                  : socket.obj (.text)
                  20006f1c    00000ad8                  : netapp.obj (.text)
                  200079f4    00000a58                  : wlan.obj (.text)
                  2000844c    0000098c     driverlib.a : prcm.obj (.text)
                  20008dd8    0000079c                 : spi.obj (.text)
                  20009574    0000068c     simplelink.a : cc_pal.obj (.text)
                  20009c00    00000520                  : device.obj (.text)
                  2000a120    000004bc     driverlib.a : shamd5.obj (.text)
                  2000a5dc    000004a4                 : udma.obj (.text)
                  2000aa80    00000454     simplelink.a : fs.obj (.text)
                  2000aed4    000003b4     wy_fs.obj (.text)
                  2000b288    00000370     driverlib.a : interrupt.obj (.text)
                  2000b5f8    00000354     gpio_if.obj (.text)
                  2000b94c    0000034c     firmware_loader.obj (.text)
                  2000bc98    0000033c     wy_bl_network_if.obj (.text)
                  2000bfd4    00000334     driverlib.a : gpio.obj (.text)
                  2000c308    00000300                 : flash.obj (.text)
                  2000c608    00000284                 : pin.obj (.text)
                  2000c88c    000001f4     rtsv7M4_T_le_eabi.lib : ull_div_t2.obj (.text)
                  2000ca80    000001b4     tcp_server.obj (.text)
                  2000cc34    00000114     simplelink.a : nonos.obj (.text)
                  2000cd48    0000009c     main.obj (.text)
                  2000cde4    0000009c     rtsv7M4_T_le_eabi.lib : memcpy_t2.obj (.text)
                  2000ce80    00000094                           : auto_init.obj (.text)
                  2000cf14    0000007a                           : memset_t2.obj (.text)
                  2000cf8e    00000002     --HOLE-- [fill = 0]
                  2000cf90    00000070     simplelink.a : flowcont.obj (.text)
                  2000d000    0000006a     pinmux.obj (.text)
                  2000d06a    0000005e     driverlib.a : cpu.obj (.text)
                  2000d0c8    0000005e     rtsv7M4_T_le_eabi.lib : copy_decompress_rle.obj (.text)
                  2000d126    00000002     --HOLE-- [fill = 0]
                  2000d128    00000044                           : cpy_tbl.obj (.text)
                  2000d16c    00000044                           : exit.obj (.text)
                  2000d1b0    00000038     uart_if.obj (.text)
                  2000d1e8    00000034     rtsv7M4_T_le_eabi.lib : boot.obj (.text)
                  2000d21c    00000022                           : memcmp.obj (.text)
                  2000d23e    0000001e                           : ll_lsr_t2.obj (.text)
                  2000d25c    0000001e     wy_fs.obj (.text:wy_FsClose)
                  2000d27a    0000001e     wy_fs.obj (.text:wy_FsRead)
                  2000d298    0000001e     wy_fs.obj (.text:wy_FsWrite)
                  2000d2b6    00000002     --HOLE-- [fill = 0]
                  2000d2b8    00000018     rtsv7M4_T_le_eabi.lib : args_main.obj (.text)
                  2000d2d0    00000014                           : _lock.obj (.text)
                  2000d2e4    00000014                           : strlen.obj (.text)
                  2000d2f8    00000014     wy_fs.obj (.text:wy_FsGetInfo)
                  2000d30c    00000012     rtsv7M4_T_le_eabi.lib : copy_zero_init.obj (.text:decompress:ZI)
                  2000d31e    0000000e                           : copy_decompress_none.obj (.text:decompress:none)
                  2000d32c    0000000e     startup_ccs.obj (.text)
                  2000d33a    00000006     driverlib.a : utils.obj (.text:UtilsDelay)
                  2000d340    00000006     rtsv7M4_T_le_eabi.lib : copy_decompress_rle.obj (.text:decompress:rle24)

.const     0    2000d348    0000059e     
                  2000d348    00000100     driverlib.a : pin.obj (.const:g_ulPinToPadMap)
                  2000d448    000000d4                 : interrupt.obj (.const:g_pulRegs)
                  2000d51c    000000a0                 : prcm.obj (.const:PRCM_PeriphRegsList)
                  2000d5bc    00000080                 : interrupt.obj (.const)
                  2000d63c    00000040                 : flash.obj (.const:g_pulFMPPERegs)
                  2000d67c    00000040                 : flash.obj (.const:g_pulFMPRERegs)
                  2000d6bc    0000003c     simplelink.a : wlan.obj (.const)
                  2000d6f8    00000038                  : driver.obj (.const:_SlActionLookupTable)
                  2000d730    00000034     firmware_loader.obj (.const:.string)
                  2000d764    00000034     simplelink.a : socket.obj (.const)
                  2000d798    0000002c     wy_bl_network_if.obj (.const:$P$T0$1)
                  2000d7c4    0000002c     simplelink.a : fs.obj (.const)
                  2000d7f0    00000028     wy_fs.obj (.const:.string)
                  2000d818    00000028     simplelink.a : netapp.obj (.const)
                  2000d840    00000024     driverlib.a : spi.obj (.const:g_ppulSPIIntMap)
                  2000d864    00000018                 : spi.obj (.const)
                  2000d87c    00000016     tcp_server.obj (.const:.string)
                  2000d892    00000014     wy_bl_network_if.obj (.const:.string)
                  2000d8a6    00000014     simplelink.a : device.obj (.const)
                  2000d8ba    00000002     --HOLE-- [fill = 0]
                  2000d8bc    00000014                  : driver.obj (.const)
                  2000d8d0    00000010     tcp_server.obj (.const)
                  2000d8e0    00000006     uart_if.obj (.const:.string)

.cinit     0    2000d8e8    00000058     
                  2000d8e8    0000002e     (.cinit..data.load) [load image, compression = rle]
                  2000d916    00000002     --HOLE-- [fill = 0]
                  2000d918    0000000c     (__TI_handler_table)
                  2000d924    00000004     --HOLE-- [fill = 0]
                  2000d928    00000008     (.cinit..bss.load) [load image, compression = zero_init]
                  2000d930    00000010     (__TI_cinit_table)

.bss       0    20010000    000006e0     UNINITIALIZED
                  20010000    00000500     wy_fs.obj (.bss:Filesystem)
                  20010500    00000164     simplelink.a : driver.obj (.bss:g_StatMem)
                  20010664    00000050                  : cc_pal.obj (.bss:g_ucDinDout)
                  200106b4    00000028                  : nonos.obj (.bss:g__SlNonOsCB)
                  200106dc    00000001     (.common:g_cDummy)
                  200106dd    00000001     (.common:g_ucLED1Pin)
                  200106de    00000001     (.common:g_ucLED2Pin)
                  200106df    00000001     (.common:g_ucLED3Pin)

.data      0    200106e0    00000054     UNINITIALIZED
                  200106e0    0000001c     gpio_if.obj (.data)
                  200106fc    00000010     simplelink.a : cc_pal.obj (.data)
                  2001070c    00000008     firmware_loader.obj (.data)
                  20010714    00000008     rtsv7M4_T_le_eabi.lib : _lock.obj (.data)
                  2001071c    00000008                           : exit.obj (.data)
                  20010724    00000008     simplelink.a : driver.obj (.data)
                  2001072c    00000004     rtsv7M4_T_le_eabi.lib : stkdepth_vars.obj (.data)
                  20010730    00000004     wy_bl_network_if.obj (.data)

.stack     0    20010b00    000014ff     UNINITIALIZED
                  20010b00    000014ff     --HOLE--


LINKER GENERATED COPY TABLES

__TI_cinit_table @ 2000d930 records: 2, size/record: 8, table size: 16
	.data: load addr=2000d8e8, load size=0000002e bytes, run addr=200106e0, run size=00000054 bytes, compression=rle
	.bss: load addr=2000d928, load size=00000008 bytes, run addr=20010000, run size=000006e0 bytes, compression=zero_init


LINKER GENERATED HANDLER TABLE

__TI_handler_table @ 2000d918 records: 3, size/record: 4, table size: 12
	index: 0, handler: __TI_decompress_rle24
	index: 1, handler: __TI_decompress_none
	index: 2, handler: __TI_zero_init


GLOBAL SYMBOLS: SORTED ALPHABETICALLY BY Name 

address    name
--------   ----
2000d16d   C$$EXIT
2000d0bf   CPUbasepriGet
2000d0a9   CPUbasepriSet
2000d06b   CPUcpsid
2000d089   CPUcpsie
2000d07f   CPUprimask
2000d09d   CPUwfi
2000d1bd   ClearTerm
20007539   CopyPingResultsToReport
20009651   DmaSpiSwIntHandler
2000bc59   EmplaceFirmware
2000c309   FlashDisable
2000c33f   FlashErase
2000c379   FlashEraseNonBlocking
2000c5b5   FlashIntClear
2000c585   FlashIntDisable
2000c571   FlashIntEnable
2000c54d   FlashIntRegister
2000c599   FlashIntStatus
2000c561   FlashIntUnregister
2000c397   FlashMassErase
2000c3c3   FlashMassEraseNonBlocking
2000c3d3   FlashProgram
2000c455   FlashProgramNonBlocking
2000c4d7   FlashProtectGet
2000c29f   GPIODMATriggerDisable
2000c247   GPIODMATriggerEnable
2000c053   GPIODirModeGet
2000c01d   GPIODirModeSet
2000c1c3   GPIOIntClear
2000c187   GPIOIntDisable
2000c16d   GPIOIntEnable
2000c1d7   GPIOIntRegister
2000c1a1   GPIOIntStatus
2000c107   GPIOIntTypeGet
2000c085   GPIOIntTypeSet
2000c1f5   GPIOIntUnregister
2000c20f   GPIOPinRead
2000c227   GPIOPinWrite
2000b87d   GPIO_IF_ConfigureNIntEnable
2000b8f3   GPIO_IF_Get
2000b837   GPIO_IF_GetPortNPin
2000b5f9   GPIO_IF_LedConfigure
2000b6eb   GPIO_IF_LedOff
2000b637   GPIO_IF_LedOn
2000b79f   GPIO_IF_LedStatus
2000b809   GPIO_IF_LedToggle
2000b8b9   GPIO_IF_Set
20009c09   GetStartResponseConvert
20009a17   HostIntHanlder
2000d1b1   InitTerm
2000b445   IntDisable
2000b3ab   IntEnable
2000b295   IntMasterDisable
2000b28b   IntMasterEnable
2000b56d   IntPendClear
2000b4df   IntPendSet
2000b387   IntPriorityGet
2000b2ff   IntPriorityGroupingGet
2000b2e5   IntPriorityGroupingSet
2000b5d1   IntPriorityMaskGet
2000b5c5   IntPriorityMaskSet
2000b337   IntPrioritySet
2000b2af   IntRegister
2000b2cb   IntUnregister
2000b29f   IntVTableBaseSet
2000d1b3   Message
2000bfb7   Network_IF_DeInitDriver
2000bf9f   Network_IF_InitDriver
2000bf5d   Network_IF_StartSimpleLinkAsAP
20009a87   NwpMaskInterrupt
20009b33   NwpPowerOff
20009b15   NwpPowerOn
20009aa5   NwpPowerOnPreamble
20009a3d   NwpRegisterInterruptHandler
20009a95   NwpUnMaskInterrupt
20008cc1   PRCMCC3200MCUInit
200086f9   PRCMDeepSleepEnter
200088c3   PRCMHibernateEnter
200087fd   PRCMHibernateIntervalSet
20008871   PRCMHibernateWakeUpGPIOSelect
200087e1   PRCMHibernateWakeupCauseGet
200087bb   PRCMHibernateWakeupSourceDisable
20008795   PRCMHibernateWakeupSourceEnable
200085df   PRCMI2SClockFreqSet
20008a05   PRCMIntDisable
200089d1   PRCMIntEnable
200089a9   PRCMIntRegister
20008a29   PRCMIntStatus
200089bd   PRCMIntUnregister
20008647   PRCMLPDSEnter
200086b3   PRCMLPDSIntervalSet
2000862f   PRCMLPDSRestoreInfoSet
200086d5   PRCMLPDSWakeUpGPIOSelect
200086ad   PRCMLPDSWakeupCauseGet
20008699   PRCMLPDSWakeupSourceDisable
20008677   PRCMLPDSWakeupSourceEnable
20008459   PRCMMCUReset
2000898f   PRCMOCRRegisterRead
20008975   PRCMOCRRegisterWrite
200084c9   PRCMPeripheralClkDisable
2000849d   PRCMPeripheralClkEnable
200084e9   PRCMPeripheralClockGet
20008567   PRCMPeripheralReset
200085b5   PRCMPeripheralStatusGet
20008af1   PRCMRTCGet
20008a41   PRCMRTCInUseGet
20008a2f   PRCMRTCInUseSet
20008c25   PRCMRTCMatchGet
20008b89   PRCMRTCMatchSet
20008a61   PRCMRTCSet
2000844d   PRCMSOCReset
20008761   PRCMSRAMRetentionDisable
20008729   PRCMSRAMRetentionEnable
200086f1   PRCMSleepEnter
200088d3   PRCMSlowClkCtrGet
20008935   PRCMSlowClkCtrMatchGet
2000890d   PRCMSlowClkCtrMatchSet
20008479   PRCMSysResetCauseGet
2000c6c9   PinConfigGet
2000c707   PinConfigSet
2000c69f   PinDirModeGet
2000c66b   PinDirModeSet
2000c641   PinModeGet
2000c609   PinModeSet
2000d001   PinMuxConfig
2000c851   PinTypeADC
2000c807   PinTypeCamera
2000c821   PinTypeGPIO
2000c79d   PinTypeI2C
2000c7d3   PinTypeI2S
2000c865   PinTypeSDHost
2000c7b9   PinTypeSPI
2000c7ed   PinTypeTimer
2000c783   PinTypeUART
2000d1d3   Report
2000d32d   ResetISR
2000a271   SHAMD5ConfigSet
2000a139   SHAMD5DMADisable
2000a121   SHAMD5DMAEnable
2000a25f   SHAMD5DataLengthSet
2000a463   SHAMD5DataProcess
2000a2c5   SHAMD5DataWrite
2000a283   SHAMD5DataWriteNonBlocking
2000a563   SHAMD5HMACKeySet
2000a4eb   SHAMD5HMACPPKeyGenerate
2000a59d   SHAMD5HMACPPKeySet
2000a4a9   SHAMD5HMACProcess
2000a21f   SHAMD5IntClear
2000a1db   SHAMD5IntDisable
2000a19f   SHAMD5IntEnable
2000b94d   SHAMD5IntHandler
2000a237   SHAMD5IntRegister
2000a151   SHAMD5IntStatus
2000a24d   SHAMD5IntUnregister
2000a30f   SHAMD5ResultRead
UNDEFED    SHT$$INIT_ARRAY$$Base
UNDEFED    SHT$$INIT_ARRAY$$Limit
20006e33   SL_FD_CLR
20006e55   SL_FD_ISSET
20006e15   SL_FD_SET
20006e79   SL_FD_ZERO
200094bd   SPICSDisable
200094a5   SPICSEnable
20009135   SPIConfigSetExpClk
20009203   SPIDataGet
200091d9   SPIDataGetNonBlocking
2000924b   SPIDataPut
20009223   SPIDataPutNonBlocking
200090c7   SPIDisable
200090f9   SPIDmaDisable
200090df   SPIDmaEnable
200090af   SPIEnable
20009283   SPIFIFODisable
20009269   SPIFIFOEnable
200092d1   SPIFIFOLevelGet
2000929d   SPIFIFOLevelSet
20009467   SPIIntClear
200093af   SPIIntDisable
2000936b   SPIIntEnable
2000932d   SPIIntRegister
200093f9   SPIIntStatus
20009351   SPIIntUnregister
20009113   SPIReset
200094d5   SPITransfer
20009305   SPIWordCountSet
2000bacd   SaveSRAMContent
2000966b   SetupDMAReceive
200096e5   SetupDMASend
2000bd51   SimpleLinkGeneralEventHandler
2000bd85   SimpleLinkHttpServerCallback
2000bd07   SimpleLinkNetAppEventHandler
2000bd63   SimpleLinkSockEventHandler
2000bcaf   SimpleLinkWlanEventHandler
2000bc41   StartFirmware
2000cb7d   TcpServer
2000cb49   TcpServer_Accept
2000d33b   UtilsDelay
2000aab1   _GetCreateFsMode
2000d778   _SlAcceptCmdCtrl
2000d6f8   _SlActionLookupTable
2000515d   _SlAsyncEventGenericHandler
2000d8b2   _SlDeviceGetCmdCtrl
2000d8b6   _SlDeviceSetCmdCtrl
20005ad1   _SlDrvBasicCmd
200057c9   _SlDrvClassifyRxMsg
200045a5   _SlDrvCmdOp
2000461d   _SlDrvCmdSend
20004661   _SlDrvDataReadOp
20004835   _SlDrvDataWriteOp
2000a0d5   _SlDrvDeviceEventHandler
200044cf   _SlDrvDriverCBDeinit
20004401   _SlDrvDriverCBInit
2000cfc7   _SlDrvFlowContDeinit
2000cf91   _SlDrvFlowContInit
20004b9d   _SlDrvMsgRead
20005607   _SlDrvMsgReadCmdCtx
200056f5   _SlDrvMsgReadSpawnCtx
200049db   _SlDrvMsgWrite
200078e1   _SlDrvNetAppEventHandler
20005fa1   _SlDrvObjDeInit
20005f25   _SlDrvObjInit
20005d25   _SlDrvReleasePoolObj
20005915   _SlDrvRxHdrRead
20004563   _SlDrvRxIrqHandler
200058cd   _SlDrvShiftDWord
20005b35   _SlDrvWaitForPoolObj
2000d8ae   _SlEventMaskGetCmdCtrl
2000d8aa   _SlEventMaskSetCmdCtrl
2000607b   _SlFindAndSetActiveObj
2000d7c8   _SlFsCloseCmdCtrl
2000d7d8   _SlFsDeleteCmdCtrl
2000d7d4   _SlFsGetInfoCmdCtrl
2000d7c4   _SlFsOpenCmdCtrl
2000d7cc   _SlFsReadCmdCtrl
2000d7d0   _SlFsWriteCmdCtrl
2000d82c   _SlGetHostByNameCtrl
2000d828   _SlGetHostByServiceCtrl
2000d820   _SlGetServiceListeCtrl
2000d784   _SlGetSockOptCmdCtrl
2000d774   _SlListenCmdCtrl
2000d838   _SlNetAppGetCmdCtrl
2000d834   _SlNetAppSendTokenValueCmdCtrl
2000d830   _SlNetAppSetCmdCtrl
2000d818   _SlNetAppStartCtrl
2000d81c   _SlNetAppStopCtrl
2000cceb   _SlNonOsMainLoopTask
2000cc4d   _SlNonOsSemGet
2000cc35   _SlNonOsSemSet
2000cca7   _SlNonOsSpawn
2000d6c0   _SlPolicyGetCmdCtrl
2000d6bc   _SlPolicySetCmdCtrl
2000d6c8   _SlProfileDelCmdCtrl
2000d6c4   _SlProfileGetCmdCtrl
2000d77c   _SlRecvCmdCtrl
2000d76c   _SlRecvfomCmdCtrl
2000d824   _SlRegisterServiceCtrl
20005fc1   _SlRemoveFromList
2000d6d0   _SlRxFilterAddtCmdCtrl
2000d6d8   _SlRxFilterGetCmdCtrl
2000d6d4   _SlRxFilterSetCmdCtrl
2000d788   _SlSelectCmdCtrl
2000d770   _SlSendCmdCtrl
2000d780   _SlSetSockOptCmdCtrl
2000d6dc   _SlSmartConfigStartCmdCtrl
2000d768   _SlSockCloseCmdCtrl
2000d764   _SlSockSocketCmdCtrl
2000d8a6   _SlStopCmdCtrl
2000d6e8   _SlWlanCfgGetCmdCtrl
2000d6e4   _SlWlanCfgSetCmdCtrl
2000d6cc   _SlWlanGetNetworkListCtrl
2000d6e0   _SlWlanSetModeCmdCtrl
20011fff   __STACK_END
000014ff   __STACK_SIZE
2000d930   __TI_CINIT_Base
2000d940   __TI_CINIT_Limit
2000d918   __TI_Handler_Table_Base
2000d924   __TI_Handler_Table_Limit
00000001   __TI_args_main
2000ce81   __TI_auto_init
2001071c   __TI_cleanup_ptr
2000d31f   __TI_decompress_none
2000d341   __TI_decompress_rle24
20010720   __TI_dtors_ptr
2000d8e8   __TI_static_base__
2000d30d   __TI_zero_init
2000d23f   __aeabi_llsr
2000cf15   __aeabi_memclr
2000cf15   __aeabi_memclr4
2000cf15   __aeabi_memclr8
2000cde5   __aeabi_memcpy
2000cde5   __aeabi_memcpy4
2000cde5   __aeabi_memcpy8
2000cf17   __aeabi_memset
2000cf17   __aeabi_memset4
2000cf17   __aeabi_memset8
2000c88d   __aeabi_uldivmod
ffffffff   __binit__
ffffffff   __c_args__
20010b00   __stack
2000d2b9   _args_main
2000d1e9   _c_int00
20010714   _lock
2000d2df   _nop
2000d2d7   _register_lock
2000d2d1   _register_unlock
200061f1   _sl_BuildAddress
20006aaf   _sl_HandleAsync_Accept
20006773   _sl_HandleAsync_Connect
2000733d   _sl_HandleAsync_DnsGetHostByAddr
20007481   _sl_HandleAsync_DnsGetHostByName
20007271   _sl_HandleAsync_DnsGetHostByService
20009d4f   _sl_HandleAsync_InitComplete
20007575   _sl_HandleAsync_PingResponse
20006e91   _sl_HandleAsync_Select
20009df5   _sl_HandleAsync_Stop
200062e9   _sl_ParseAddress
2000623f   _sl_TruncatePayloadByProtocol
20010718   _unlock
2000d171   abort
ffffffff   binit
20009b81   cc_SetupTransfer
20009b5d   cc_UDMAChannelSelect
2000d129   copy_in
2000d179   exit
2000d8c4   g_H2NCnysPattern
2000d8bc   g_H2NSyncPattern
20010700   g_SpiFd
20010500   g_StatMem
200106b4   g__SlNonOsCB
200106dc   g_cDummy
20010708   g_len
20010724   g_pCB
200106fc   g_pHostIntHdl
20004000   g_pfnVectors
20010704   g_ucDMAEnabled
20010664   g_ucDinDout
200106dd   g_ucLED1Pin
200106de   g_ucLED2Pin
200106df   g_ucLED3Pin
200106f0   g_uiLED1Port
200106f4   g_uiLED2Port
200106f8   g_uiLED3Port
2000cd7b   main
2001072c   main_func_sp
2000d21d   memcmp
2000cde5   memcpy
2000cf1d   memset
20010728   pPingCallBackFunc
2000694d   sl_Accept
200063b3   sl_Bind
2000638f   sl_Close
20006641   sl_Connect
20009fd9   sl_DevGet
2000a073   sl_DevSet
20009fa9   sl_EventMaskGet
20009f73   sl_EventMaskSet
2000abb5   sl_FsClose
2000ae7d   sl_FsDel
2000ae01   sl_FsGetInfo
2000ab45   sl_FsOpen
2000ac2d   sl_FsRead
2000ad19   sl_FsWrite
20006c11   sl_GetSockOpt
20006911   sl_Listen
2000734d   sl_NetAppDnsGetHostByName
20007151   sl_NetAppDnsGetHostByService
20007855   sl_NetAppGet
20006f5d   sl_NetAppGetServiceList
200070d7   sl_NetAppMDNSRegisterService
20007027   sl_NetAppMDNSRegisterUnregisterService
20007113   sl_NetAppMDNSUnRegisterService
2000762d   sl_NetAppPingStart
200077f5   sl_NetAppSendTokenValue
2000778f   sl_NetAppSet
20006f1d   sl_NetAppStart
20006f3d   sl_NetAppStop
20006b3d   sl_Recv
20006535   sl_RecvFrom
20006ca1   sl_Select
20006819   sl_Send
20006431   sl_SendTo
20006ba9   sl_SetSockOpt
20006343   sl_Socket
20009c5f   sl_Start
20009e6d   sl_Stop
2000aa81   sl_Strlen
20009c01   sl_Task
200079f5   sl_WlanConnect
20007c17   sl_WlanDisconnect
20008399   sl_WlanGet
20008085   sl_WlanGetNetworkList
20007c85   sl_WlanPolicyGet
20007c23   sl_WlanPolicySet
20007d25   sl_WlanProfileAdd
2000805b   sl_WlanProfileDel
20007f81   sl_WlanProfileGet
200080ed   sl_WlanRxFilterAdd
200081a7   sl_WlanRxFilterGet
20008157   sl_WlanRxFilterSet
20008231   sl_WlanRxStatGet
20008219   sl_WlanRxStatStart
20008225   sl_WlanRxStatStop
20008329   sl_WlanSet
200082fd   sl_WlanSetMode
20008275   sl_WlanSmartConfigStart
20008263   sl_WlanSmartConfigStop
2000985d   spi_Close
2000975f   spi_Open
200098c9   spi_Read
20009575   spi_Read_CPU
200099a5   spi_Write
200095e3   spi_Write_CPU
2000d2e5   strlen
2000aa25   uDMAChannelAssign
2000a6d5   uDMAChannelAttributeDisable
2000a681   uDMAChannelAttributeEnable
2000a729   uDMAChannelAttributeGet
2000a799   uDMAChannelControlSet
2000a613   uDMAChannelDisable
2000a5fb   uDMAChannelEnable
2000a62b   uDMAChannelIsEnabled
2000a99d   uDMAChannelModeGet
2000a669   uDMAChannelRequest
2000a8cd   uDMAChannelScatterGatherSet
2000a955   uDMAChannelSizeGet
2000a7d5   uDMAChannelTransferSet
2000a663   uDMAControlAlternateBaseGet
2000a65d   uDMAControlBaseGet
2000a64d   uDMAControlBaseSet
2000a5e5   uDMADisable
2000a5dd   uDMAEnable
2000a5f3   uDMAErrorStatusClear
2000a5ed   uDMAErrorStatusGet
2000aa11   uDMAIntClear
2000a9e3   uDMAIntRegister
2000aa0b   uDMAIntStatus
2000a9f9   uDMAIntUnregister
2000bc99   wifi_status_disconnected
2000d25d   wy_FsClose
2000b1dd   wy_FsDel
2000b201   wy_FsFormat
2000d2f9   wy_FsGetInfo
2000b189   wy_FsOpen
2000d27b   wy_FsRead
2000d299   wy_FsWrite


GLOBAL SYMBOLS: SORTED BY Symbol Address 

address    name
--------   ----
00000001   __TI_args_main
000014ff   __STACK_SIZE
20004000   g_pfnVectors
20004401   _SlDrvDriverCBInit
200044cf   _SlDrvDriverCBDeinit
20004563   _SlDrvRxIrqHandler
200045a5   _SlDrvCmdOp
2000461d   _SlDrvCmdSend
20004661   _SlDrvDataReadOp
20004835   _SlDrvDataWriteOp
200049db   _SlDrvMsgWrite
20004b9d   _SlDrvMsgRead
2000515d   _SlAsyncEventGenericHandler
20005607   _SlDrvMsgReadCmdCtx
200056f5   _SlDrvMsgReadSpawnCtx
200057c9   _SlDrvClassifyRxMsg
200058cd   _SlDrvShiftDWord
20005915   _SlDrvRxHdrRead
20005ad1   _SlDrvBasicCmd
20005b35   _SlDrvWaitForPoolObj
20005d25   _SlDrvReleasePoolObj
20005f25   _SlDrvObjInit
20005fa1   _SlDrvObjDeInit
20005fc1   _SlRemoveFromList
2000607b   _SlFindAndSetActiveObj
200061f1   _sl_BuildAddress
2000623f   _sl_TruncatePayloadByProtocol
200062e9   _sl_ParseAddress
20006343   sl_Socket
2000638f   sl_Close
200063b3   sl_Bind
20006431   sl_SendTo
20006535   sl_RecvFrom
20006641   sl_Connect
20006773   _sl_HandleAsync_Connect
20006819   sl_Send
20006911   sl_Listen
2000694d   sl_Accept
20006aaf   _sl_HandleAsync_Accept
20006b3d   sl_Recv
20006ba9   sl_SetSockOpt
20006c11   sl_GetSockOpt
20006ca1   sl_Select
20006e15   SL_FD_SET
20006e33   SL_FD_CLR
20006e55   SL_FD_ISSET
20006e79   SL_FD_ZERO
20006e91   _sl_HandleAsync_Select
20006f1d   sl_NetAppStart
20006f3d   sl_NetAppStop
20006f5d   sl_NetAppGetServiceList
20007027   sl_NetAppMDNSRegisterUnregisterService
200070d7   sl_NetAppMDNSRegisterService
20007113   sl_NetAppMDNSUnRegisterService
20007151   sl_NetAppDnsGetHostByService
20007271   _sl_HandleAsync_DnsGetHostByService
2000733d   _sl_HandleAsync_DnsGetHostByAddr
2000734d   sl_NetAppDnsGetHostByName
20007481   _sl_HandleAsync_DnsGetHostByName
20007539   CopyPingResultsToReport
20007575   _sl_HandleAsync_PingResponse
2000762d   sl_NetAppPingStart
2000778f   sl_NetAppSet
200077f5   sl_NetAppSendTokenValue
20007855   sl_NetAppGet
200078e1   _SlDrvNetAppEventHandler
200079f5   sl_WlanConnect
20007c17   sl_WlanDisconnect
20007c23   sl_WlanPolicySet
20007c85   sl_WlanPolicyGet
20007d25   sl_WlanProfileAdd
20007f81   sl_WlanProfileGet
2000805b   sl_WlanProfileDel
20008085   sl_WlanGetNetworkList
200080ed   sl_WlanRxFilterAdd
20008157   sl_WlanRxFilterSet
200081a7   sl_WlanRxFilterGet
20008219   sl_WlanRxStatStart
20008225   sl_WlanRxStatStop
20008231   sl_WlanRxStatGet
20008263   sl_WlanSmartConfigStop
20008275   sl_WlanSmartConfigStart
200082fd   sl_WlanSetMode
20008329   sl_WlanSet
20008399   sl_WlanGet
2000844d   PRCMSOCReset
20008459   PRCMMCUReset
20008479   PRCMSysResetCauseGet
2000849d   PRCMPeripheralClkEnable
200084c9   PRCMPeripheralClkDisable
200084e9   PRCMPeripheralClockGet
20008567   PRCMPeripheralReset
200085b5   PRCMPeripheralStatusGet
200085df   PRCMI2SClockFreqSet
2000862f   PRCMLPDSRestoreInfoSet
20008647   PRCMLPDSEnter
20008677   PRCMLPDSWakeupSourceEnable
20008699   PRCMLPDSWakeupSourceDisable
200086ad   PRCMLPDSWakeupCauseGet
200086b3   PRCMLPDSIntervalSet
200086d5   PRCMLPDSWakeUpGPIOSelect
200086f1   PRCMSleepEnter
200086f9   PRCMDeepSleepEnter
20008729   PRCMSRAMRetentionEnable
20008761   PRCMSRAMRetentionDisable
20008795   PRCMHibernateWakeupSourceEnable
200087bb   PRCMHibernateWakeupSourceDisable
200087e1   PRCMHibernateWakeupCauseGet
200087fd   PRCMHibernateIntervalSet
20008871   PRCMHibernateWakeUpGPIOSelect
200088c3   PRCMHibernateEnter
200088d3   PRCMSlowClkCtrGet
2000890d   PRCMSlowClkCtrMatchSet
20008935   PRCMSlowClkCtrMatchGet
20008975   PRCMOCRRegisterWrite
2000898f   PRCMOCRRegisterRead
200089a9   PRCMIntRegister
200089bd   PRCMIntUnregister
200089d1   PRCMIntEnable
20008a05   PRCMIntDisable
20008a29   PRCMIntStatus
20008a2f   PRCMRTCInUseSet
20008a41   PRCMRTCInUseGet
20008a61   PRCMRTCSet
20008af1   PRCMRTCGet
20008b89   PRCMRTCMatchSet
20008c25   PRCMRTCMatchGet
20008cc1   PRCMCC3200MCUInit
200090af   SPIEnable
200090c7   SPIDisable
200090df   SPIDmaEnable
200090f9   SPIDmaDisable
20009113   SPIReset
20009135   SPIConfigSetExpClk
200091d9   SPIDataGetNonBlocking
20009203   SPIDataGet
20009223   SPIDataPutNonBlocking
2000924b   SPIDataPut
20009269   SPIFIFOEnable
20009283   SPIFIFODisable
2000929d   SPIFIFOLevelSet
200092d1   SPIFIFOLevelGet
20009305   SPIWordCountSet
2000932d   SPIIntRegister
20009351   SPIIntUnregister
2000936b   SPIIntEnable
200093af   SPIIntDisable
200093f9   SPIIntStatus
20009467   SPIIntClear
200094a5   SPICSEnable
200094bd   SPICSDisable
200094d5   SPITransfer
20009575   spi_Read_CPU
200095e3   spi_Write_CPU
20009651   DmaSpiSwIntHandler
2000966b   SetupDMAReceive
200096e5   SetupDMASend
2000975f   spi_Open
2000985d   spi_Close
200098c9   spi_Read
200099a5   spi_Write
20009a17   HostIntHanlder
20009a3d   NwpRegisterInterruptHandler
20009a87   NwpMaskInterrupt
20009a95   NwpUnMaskInterrupt
20009aa5   NwpPowerOnPreamble
20009b15   NwpPowerOn
20009b33   NwpPowerOff
20009b5d   cc_UDMAChannelSelect
20009b81   cc_SetupTransfer
20009c01   sl_Task
20009c09   GetStartResponseConvert
20009c5f   sl_Start
20009d4f   _sl_HandleAsync_InitComplete
20009df5   _sl_HandleAsync_Stop
20009e6d   sl_Stop
20009f73   sl_EventMaskSet
20009fa9   sl_EventMaskGet
20009fd9   sl_DevGet
2000a073   sl_DevSet
2000a0d5   _SlDrvDeviceEventHandler
2000a121   SHAMD5DMAEnable
2000a139   SHAMD5DMADisable
2000a151   SHAMD5IntStatus
2000a19f   SHAMD5IntEnable
2000a1db   SHAMD5IntDisable
2000a21f   SHAMD5IntClear
2000a237   SHAMD5IntRegister
2000a24d   SHAMD5IntUnregister
2000a25f   SHAMD5DataLengthSet
2000a271   SHAMD5ConfigSet
2000a283   SHAMD5DataWriteNonBlocking
2000a2c5   SHAMD5DataWrite
2000a30f   SHAMD5ResultRead
2000a463   SHAMD5DataProcess
2000a4a9   SHAMD5HMACProcess
2000a4eb   SHAMD5HMACPPKeyGenerate
2000a563   SHAMD5HMACKeySet
2000a59d   SHAMD5HMACPPKeySet
2000a5dd   uDMAEnable
2000a5e5   uDMADisable
2000a5ed   uDMAErrorStatusGet
2000a5f3   uDMAErrorStatusClear
2000a5fb   uDMAChannelEnable
2000a613   uDMAChannelDisable
2000a62b   uDMAChannelIsEnabled
2000a64d   uDMAControlBaseSet
2000a65d   uDMAControlBaseGet
2000a663   uDMAControlAlternateBaseGet
2000a669   uDMAChannelRequest
2000a681   uDMAChannelAttributeEnable
2000a6d5   uDMAChannelAttributeDisable
2000a729   uDMAChannelAttributeGet
2000a799   uDMAChannelControlSet
2000a7d5   uDMAChannelTransferSet
2000a8cd   uDMAChannelScatterGatherSet
2000a955   uDMAChannelSizeGet
2000a99d   uDMAChannelModeGet
2000a9e3   uDMAIntRegister
2000a9f9   uDMAIntUnregister
2000aa0b   uDMAIntStatus
2000aa11   uDMAIntClear
2000aa25   uDMAChannelAssign
2000aa81   sl_Strlen
2000aab1   _GetCreateFsMode
2000ab45   sl_FsOpen
2000abb5   sl_FsClose
2000ac2d   sl_FsRead
2000ad19   sl_FsWrite
2000ae01   sl_FsGetInfo
2000ae7d   sl_FsDel
2000b189   wy_FsOpen
2000b1dd   wy_FsDel
2000b201   wy_FsFormat
2000b28b   IntMasterEnable
2000b295   IntMasterDisable
2000b29f   IntVTableBaseSet
2000b2af   IntRegister
2000b2cb   IntUnregister
2000b2e5   IntPriorityGroupingSet
2000b2ff   IntPriorityGroupingGet
2000b337   IntPrioritySet
2000b387   IntPriorityGet
2000b3ab   IntEnable
2000b445   IntDisable
2000b4df   IntPendSet
2000b56d   IntPendClear
2000b5c5   IntPriorityMaskSet
2000b5d1   IntPriorityMaskGet
2000b5f9   GPIO_IF_LedConfigure
2000b637   GPIO_IF_LedOn
2000b6eb   GPIO_IF_LedOff
2000b79f   GPIO_IF_LedStatus
2000b809   GPIO_IF_LedToggle
2000b837   GPIO_IF_GetPortNPin
2000b87d   GPIO_IF_ConfigureNIntEnable
2000b8b9   GPIO_IF_Set
2000b8f3   GPIO_IF_Get
2000b94d   SHAMD5IntHandler
2000bacd   SaveSRAMContent
2000bc41   StartFirmware
2000bc59   EmplaceFirmware
2000bc99   wifi_status_disconnected
2000bcaf   SimpleLinkWlanEventHandler
2000bd07   SimpleLinkNetAppEventHandler
2000bd51   SimpleLinkGeneralEventHandler
2000bd63   SimpleLinkSockEventHandler
2000bd85   SimpleLinkHttpServerCallback
2000bf5d   Network_IF_StartSimpleLinkAsAP
2000bf9f   Network_IF_InitDriver
2000bfb7   Network_IF_DeInitDriver
2000c01d   GPIODirModeSet
2000c053   GPIODirModeGet
2000c085   GPIOIntTypeSet
2000c107   GPIOIntTypeGet
2000c16d   GPIOIntEnable
2000c187   GPIOIntDisable
2000c1a1   GPIOIntStatus
2000c1c3   GPIOIntClear
2000c1d7   GPIOIntRegister
2000c1f5   GPIOIntUnregister
2000c20f   GPIOPinRead
2000c227   GPIOPinWrite
2000c247   GPIODMATriggerEnable
2000c29f   GPIODMATriggerDisable
2000c309   FlashDisable
2000c33f   FlashErase
2000c379   FlashEraseNonBlocking
2000c397   FlashMassErase
2000c3c3   FlashMassEraseNonBlocking
2000c3d3   FlashProgram
2000c455   FlashProgramNonBlocking
2000c4d7   FlashProtectGet
2000c54d   FlashIntRegister
2000c561   FlashIntUnregister
2000c571   FlashIntEnable
2000c585   FlashIntDisable
2000c599   FlashIntStatus
2000c5b5   FlashIntClear
2000c609   PinModeSet
2000c641   PinModeGet
2000c66b   PinDirModeSet
2000c69f   PinDirModeGet
2000c6c9   PinConfigGet
2000c707   PinConfigSet
2000c783   PinTypeUART
2000c79d   PinTypeI2C
2000c7b9   PinTypeSPI
2000c7d3   PinTypeI2S
2000c7ed   PinTypeTimer
2000c807   PinTypeCamera
2000c821   PinTypeGPIO
2000c851   PinTypeADC
2000c865   PinTypeSDHost
2000c88d   __aeabi_uldivmod
2000cb49   TcpServer_Accept
2000cb7d   TcpServer
2000cc35   _SlNonOsSemSet
2000cc4d   _SlNonOsSemGet
2000cca7   _SlNonOsSpawn
2000cceb   _SlNonOsMainLoopTask
2000cd7b   main
2000cde5   __aeabi_memcpy
2000cde5   __aeabi_memcpy4
2000cde5   __aeabi_memcpy8
2000cde5   memcpy
2000ce81   __TI_auto_init
2000cf15   __aeabi_memclr
2000cf15   __aeabi_memclr4
2000cf15   __aeabi_memclr8
2000cf17   __aeabi_memset
2000cf17   __aeabi_memset4
2000cf17   __aeabi_memset8
2000cf1d   memset
2000cf91   _SlDrvFlowContInit
2000cfc7   _SlDrvFlowContDeinit
2000d001   PinMuxConfig
2000d06b   CPUcpsid
2000d07f   CPUprimask
2000d089   CPUcpsie
2000d09d   CPUwfi
2000d0a9   CPUbasepriSet
2000d0bf   CPUbasepriGet
2000d129   copy_in
2000d16d   C$$EXIT
2000d171   abort
2000d179   exit
2000d1b1   InitTerm
2000d1b3   Message
2000d1bd   ClearTerm
2000d1d3   Report
2000d1e9   _c_int00
2000d21d   memcmp
2000d23f   __aeabi_llsr
2000d25d   wy_FsClose
2000d27b   wy_FsRead
2000d299   wy_FsWrite
2000d2b9   _args_main
2000d2d1   _register_unlock
2000d2d7   _register_lock
2000d2df   _nop
2000d2e5   strlen
2000d2f9   wy_FsGetInfo
2000d30d   __TI_zero_init
2000d31f   __TI_decompress_none
2000d32d   ResetISR
2000d33b   UtilsDelay
2000d341   __TI_decompress_rle24
2000d6bc   _SlPolicySetCmdCtrl
2000d6c0   _SlPolicyGetCmdCtrl
2000d6c4   _SlProfileGetCmdCtrl
2000d6c8   _SlProfileDelCmdCtrl
2000d6cc   _SlWlanGetNetworkListCtrl
2000d6d0   _SlRxFilterAddtCmdCtrl
2000d6d4   _SlRxFilterSetCmdCtrl
2000d6d8   _SlRxFilterGetCmdCtrl
2000d6dc   _SlSmartConfigStartCmdCtrl
2000d6e0   _SlWlanSetModeCmdCtrl
2000d6e4   _SlWlanCfgSetCmdCtrl
2000d6e8   _SlWlanCfgGetCmdCtrl
2000d6f8   _SlActionLookupTable
2000d764   _SlSockSocketCmdCtrl
2000d768   _SlSockCloseCmdCtrl
2000d76c   _SlRecvfomCmdCtrl
2000d770   _SlSendCmdCtrl
2000d774   _SlListenCmdCtrl
2000d778   _SlAcceptCmdCtrl
2000d77c   _SlRecvCmdCtrl
2000d780   _SlSetSockOptCmdCtrl
2000d784   _SlGetSockOptCmdCtrl
2000d788   _SlSelectCmdCtrl
2000d7c4   _SlFsOpenCmdCtrl
2000d7c8   _SlFsCloseCmdCtrl
2000d7cc   _SlFsReadCmdCtrl
2000d7d0   _SlFsWriteCmdCtrl
2000d7d4   _SlFsGetInfoCmdCtrl
2000d7d8   _SlFsDeleteCmdCtrl
2000d818   _SlNetAppStartCtrl
2000d81c   _SlNetAppStopCtrl
2000d820   _SlGetServiceListeCtrl
2000d824   _SlRegisterServiceCtrl
2000d828   _SlGetHostByServiceCtrl
2000d82c   _SlGetHostByNameCtrl
2000d830   _SlNetAppSetCmdCtrl
2000d834   _SlNetAppSendTokenValueCmdCtrl
2000d838   _SlNetAppGetCmdCtrl
2000d8a6   _SlStopCmdCtrl
2000d8aa   _SlEventMaskSetCmdCtrl
2000d8ae   _SlEventMaskGetCmdCtrl
2000d8b2   _SlDeviceGetCmdCtrl
2000d8b6   _SlDeviceSetCmdCtrl
2000d8bc   g_H2NSyncPattern
2000d8c4   g_H2NCnysPattern
2000d8e8   __TI_static_base__
2000d918   __TI_Handler_Table_Base
2000d924   __TI_Handler_Table_Limit
2000d930   __TI_CINIT_Base
2000d940   __TI_CINIT_Limit
20010500   g_StatMem
20010664   g_ucDinDout
200106b4   g__SlNonOsCB
200106dc   g_cDummy
200106dd   g_ucLED1Pin
200106de   g_ucLED2Pin
200106df   g_ucLED3Pin
200106f0   g_uiLED1Port
200106f4   g_uiLED2Port
200106f8   g_uiLED3Port
200106fc   g_pHostIntHdl
20010700   g_SpiFd
20010704   g_ucDMAEnabled
20010708   g_len
20010714   _lock
20010718   _unlock
2001071c   __TI_cleanup_ptr
20010720   __TI_dtors_ptr
20010724   g_pCB
20010728   pPingCallBackFunc
2001072c   main_func_sp
20010b00   __stack
20011fff   __STACK_END
ffffffff   __binit__
ffffffff   __c_args__
ffffffff   binit
UNDEFED    SHT$$INIT_ARRAY$$Base
UNDEFED    SHT$$INIT_ARRAY$$Limit

[446 symbols]
